; Function Attrs: nounwind uwtable
define ptr @ff_get_audio_buffer(ptr noundef %0, i32 noundef %1) local_unnamed_addr #0 {
  %3 = getelementptr inbounds nuw i8, ptr %0, i64 24
  %4 = load ptr, ptr %3, align 8, !tbaa !31
  %5 = getelementptr inbounds nuw i8, ptr %4, i64 16
  %6 = load ptr, ptr %5, align 8, !tbaa !32
  %.not = icmp eq ptr %6, null
  br i1 %.not, label %.thread, label %7

7:                                                ; preds = %2
  %8 = tail call ptr %6(ptr noundef nonnull %0, i32 noundef %1) #5
  %.not8 = icmp eq ptr %8, null
  br i1 %.not8, label %.thread, label %10

.thread:                                          ; preds = %2, %7
  %9 = tail call ptr @ff_default_get_audio_buffer(ptr noundef nonnull %0, i32 noundef %1)
  br label %10

10:                                               ; preds = %.thread, %7
  %.1 = phi ptr [ %8, %7 ], [ %9, %.thread ]
  ret ptr %.1
}